; Function Attrs: null_pointer_is_valid sspstrong uwtable
define internal i32 @netlogon_dissect_DELTA_ALIAS(ptr noundef %0, i32 noundef %1, ptr noundef %2, ptr noundef %3, ptr noundef %4, ptr noundef %5) #0 {
  %7 = load i32, ptr @hf_netlogon_alias_name, align 4
  %8 = tail call i32 @dissect_ndr_counted_string(ptr noundef %0, i32 noundef %1, ptr noundef %2, ptr noundef %3, ptr noundef %4, ptr noundef %5, i32 noundef %7, i32 noundef 0)
  %9 = load i32, ptr @hf_netlogon_alias_rid, align 4
  %10 = tail call i32 @dissect_ndr_uint32(ptr noundef %0, i32 noundef %8, ptr noundef %2, ptr noundef %3, ptr noundef %4, ptr noundef %5, i32 noundef %9, ptr noundef null)
  %11 = load i32, ptr @hf_netlogon_security_information, align 4
  %12 = tail call i32 @dissect_ndr_uint32(ptr noundef %0, i32 noundef %10, ptr noundef %2, ptr noundef %3, ptr noundef %4, ptr noundef %5, i32 noundef %11, ptr noundef null)
  %13 = tail call i32 @lsarpc_dissect_sec_desc_buf(ptr noundef %0, i32 noundef %12, ptr noundef %2, ptr noundef %3, ptr noundef %4, ptr noundef %5)
  %14 = load i32, ptr @hf_netlogon_dummy, align 4
  %15 = tail call i32 @dissect_ndr_counted_string(ptr noundef %0, i32 noundef %13, ptr noundef %2, ptr noundef %3, ptr noundef %4, ptr noundef %5, i32 noundef %14, i32 noundef 0)
  %16 = load i32, ptr @hf_netlogon_dummy, align 4
  %17 = tail call i32 @dissect_ndr_counted_string(ptr noundef %0, i32 noundef %15, ptr noundef %2, ptr noundef %3, ptr noundef %4, ptr noundef %5, i32 noundef %16, i32 noundef 0)
  %18 = load i32, ptr @hf_netlogon_dummy, align 4
  %19 = tail call i32 @dissect_ndr_counted_string(ptr noundef %0, i32 noundef %17, ptr noundef %2, ptr noundef %3, ptr noundef %4, ptr noundef %5, i32 noundef %18, i32 noundef 0)
  %20 = load i32, ptr @hf_netlogon_dummy, align 4
  %21 = tail call i32 @dissect_ndr_counted_string(ptr noundef %0, i32 noundef %19, ptr noundef %2, ptr noundef %3, ptr noundef %4, ptr noundef %5, i32 noundef %20, i32 noundef 0)
  %22 = load i32, ptr @hf_netlogon_reserved, align 4
  %23 = tail call i32 @dissect_ndr_uint32(ptr noundef %0, i32 noundef %21, ptr noundef %2, ptr noundef %3, ptr noundef %4, ptr noundef %5, i32 noundef %22, ptr noundef null)
  %24 = load i32, ptr @hf_netlogon_reserved, align 4
  %25 = tail call i32 @dissect_ndr_uint32(ptr noundef %0, i32 noundef %23, ptr noundef %2, ptr noundef %3, ptr noundef %4, ptr noundef %5, i32 noundef %24, ptr noundef null)
  %26 = load i32, ptr @hf_netlogon_reserved, align 4
  %27 = tail call i32 @dissect_ndr_uint32(ptr noundef %0, i32 noundef %25, ptr noundef %2, ptr noundef %3, ptr noundef %4, ptr noundef %5, i32 noundef %26, ptr noundef null)
  %28 = load i32, ptr @hf_netlogon_reserved, align 4
  %29 = tail call i32 @dissect_ndr_uint32(ptr noundef %0, i32 noundef %27, ptr noundef %2, ptr noundef %3, ptr noundef %4, ptr noundef %5, i32 noundef %28, ptr noundef null)
  ret i32 %29
}